; Function Attrs: nounwind uwtable
define internal noundef nonnull ptr @dom_objects_namespace_node_new(ptr noundef %0) #1 {
  %2 = getelementptr inbounds i8, ptr %0, i64 32
  %3 = load i32, ptr %2, align 8
  %4 = getelementptr inbounds i8, ptr %0, i64 28
  %5 = load i32, ptr %4, align 4
  %6 = lshr i32 %5, 11
  %.lobit = and i32 %6, 1
  %7 = xor i32 %.lobit, 1
  %8 = sub nsw i32 %3, %7
  %9 = sext i32 %8 to i64
  %10 = shl nsw i64 %9, 4
  %11 = add nsw i64 %10, 88
  %12 = tail call noalias ptr @_emalloc(i64 noundef %11) #17
  tail call void @llvm.memset.p0.i64(ptr noundef nonnull align 1 dereferenceable(32) %12, i8 0, i64 24, i1 false)
  %13 = load i32, ptr getelementptr inbounds (%struct._zend_module_entry, ptr @dom_module_entry, i64 0, i32 22), align 8
  br label %14

14:                                               ; preds = %21, %1
  %.0.i = phi ptr [ %0, %1 ], [ %23, %21 ]
  %15 = load i8, ptr %.0.i, align 8
  %.not.i = icmp eq i8 %15, 1
  br i1 %.not.i, label %16, label %21

16:                                               ; preds = %14
  %17 = getelementptr inbounds i8, ptr %.0.i, i64 504
  %18 = load ptr, ptr %17, align 8
  %19 = getelementptr inbounds i8, ptr %18, i64 152
  %20 = load i32, ptr %19, align 8
  %.not20.i = icmp eq i32 %20, %13
  br i1 %.not20.i, label %.critedge.i, label %21

21:                                               ; preds = %16, %14
  %22 = getelementptr inbounds i8, ptr %.0.i, i64 16
  %23 = load ptr, ptr %22, align 8
  %.not21.i = icmp eq ptr %23, null
  br i1 %.not21.i, label %.critedge.i, label %14

.critedge.i:                                      ; preds = %21, %16
  %24 = getelementptr inbounds i8, ptr %.0.i, i64 8
  %25 = load ptr, ptr %24, align 8
  %26 = tail call ptr @zend_hash_find(ptr noundef nonnull @classes, ptr noundef %25) #16
  %.not22.i = icmp eq ptr %26, null
  br i1 %.not22.i, label %dom_objects_set_class_ex.exit, label %27

27:                                               ; preds = %.critedge.i
  %28 = load ptr, ptr %26, align 8, !nonnull !4, !noundef !4
  br label %dom_objects_set_class_ex.exit

dom_objects_set_class_ex.exit:                    ; preds = %.critedge.i, %27
  %.017.i = phi ptr [ %28, %27 ], [ null, %.critedge.i ]
  %29 = getelementptr inbounds i8, ptr %12, i64 24
  store ptr %.017.i, ptr %29, align 8
  %30 = getelementptr inbounds i8, ptr %12, i64 32
  tail call void @zend_object_std_init(ptr noundef nonnull %30, ptr noundef %0) #16
  tail call void @object_properties_init(ptr noundef nonnull %30, ptr noundef %0) #16
  %31 = getelementptr inbounds i8, ptr %12, i64 56
  store ptr @dom_object_namespace_node_handlers, ptr %31, align 8
  ret ptr %30
}